; Function Attrs: cold nounwind optsize uwtable
define internal range(i32 -12, 1) i32 @cinvideo_decode_init(ptr noundef %0) #0 {
  %2 = getelementptr inbounds nuw i8, ptr %0, i64 32
  %3 = load ptr, ptr %2, align 8, !tbaa !4
  store ptr %0, ptr %3, align 8, !tbaa !27
  %4 = getelementptr inbounds nuw i8, ptr %0, i64 136
  store i32 11, ptr %4, align 8, !tbaa !31
  %5 = tail call ptr @av_frame_alloc() #7
  %6 = getelementptr inbounds nuw i8, ptr %3, i64 8
  store ptr %5, ptr %6, align 8, !tbaa !32
  %.not = icmp eq ptr %5, null
  br i1 %.not, label %15, label %7

7:                                                ; preds = %1
  %8 = getelementptr inbounds nuw i8, ptr %0, i64 112
  %9 = load i32, ptr %8, align 8, !tbaa !33
  %10 = getelementptr inbounds nuw i8, ptr %0, i64 116
  %11 = load i32, ptr %10, align 4, !tbaa !34
  %12 = mul nsw i32 %11, %9
  %13 = getelementptr inbounds nuw i8, ptr %3, i64 16
  store i32 %12, ptr %13, align 8, !tbaa !35
  %14 = tail call fastcc i32 @allocate_buffers(ptr noundef nonnull %3) #8
  %.not10 = icmp eq i32 %14, 0
  %. = select i1 %.not10, i32 0, i32 -12
  br label %15

15:                                               ; preds = %7, %1
  %.0 = phi i32 [ -12, %1 ], [ %., %7 ]
  ret i32 %.0
}